target datalayout = "e-m:e-p270:32:32-p271:32:32-p272:64:64-i64:64-i128:128-f80:128-n8:16:32:64-S128"
target triple = "x86_64-unknown-linux-gnu"

%"class.std::__cxx11::basic_string" = type { %"struct.std::__cxx11::basic_string<char>::_Alloc_hider", i64, %union.anon }
%"struct.std::__cxx11::basic_string<char>::_Alloc_hider" = type { ptr }
%union.anon = type { i64, [8 x i8] }
%"class.Assimp::Importer" = type { ptr }
%"class.Assimp::ImporterPimpl" = type { ptr, i8, ptr, i8, %"class.std::vector.0", %"class.std::vector.5", ptr, %"class.std::__cxx11::basic_string", %"class.std::__exception_ptr::exception_ptr", %"class.std::map", %"class.std::map.16", %"class.std::map.21", %"class.std::map.26", %"class.std::map.31", i8, ptr }
%"class.std::vector.0" = type { %"struct.std::_Vector_base.1" }
%"struct.std::_Vector_base.1" = type { %"struct.std::_Vector_base<Assimp::BaseImporter *, std::allocator<Assimp::BaseImporter *>>::_Vector_impl" }
%"struct.std::_Vector_base<Assimp::BaseImporter *, std::allocator<Assimp::BaseImporter *>>::_Vector_impl" = type { %"struct.std::_Vector_base<Assimp::BaseImporter *, std::allocator<Assimp::BaseImporter *>>::_Vector_impl_data" }
%"struct.std::_Vector_base<Assimp::BaseImporter *, std::allocator<Assimp::BaseImporter *>>::_Vector_impl_data" = type { ptr, ptr, ptr }
%"class.std::vector.5" = type { %"struct.std::_Vector_base.6" }
%"struct.std::_Vector_base.6" = type { %"struct.std::_Vector_base<Assimp::BaseProcess *, std::allocator<Assimp::BaseProcess *>>::_Vector_impl" }
%"struct.std::_Vector_base<Assimp::BaseProcess *, std::allocator<Assimp::BaseProcess *>>::_Vector_impl" = type { %"struct.std::_Vector_base<Assimp::BaseProcess *, std::allocator<Assimp::BaseProcess *>>::_Vector_impl_data" }
%"struct.std::_Vector_base<Assimp::BaseProcess *, std::allocator<Assimp::BaseProcess *>>::_Vector_impl_data" = type { ptr, ptr, ptr }
%"class.std::__exception_ptr::exception_ptr" = type { ptr }
%"class.std::map" = type { %"class.std::_Rb_tree" }
%"class.std::_Rb_tree" = type { %"struct.std::_Rb_tree<unsigned int, std::pair<const unsigned int, int>, std::_Select1st<std::pair<const unsigned int, int>>, std::less<unsigned int>>::_Rb_tree_impl" }
%"struct.std::_Rb_tree<unsigned int, std::pair<const unsigned int, int>, std::_Select1st<std::pair<const unsigned int, int>>, std::less<unsigned int>>::_Rb_tree_impl" = type { %"struct.std::_Rb_tree_key_compare", %"struct.std::_Rb_tree_header" }
%"struct.std::_Rb_tree_key_compare" = type { %"struct.std::less" }
%"struct.std::less" = type { i8 }
%"struct.std::_Rb_tree_header" = type { %"struct.std::_Rb_tree_node_base", i64 }
%"struct.std::_Rb_tree_node_base" = type { i32, ptr, ptr, ptr }
%"class.std::map.16" = type { %"class.std::_Rb_tree.17" }
%"class.std::_Rb_tree.17" = type { %"struct.std::_Rb_tree<unsigned int, std::pair<const unsigned int, float>, std::_Select1st<std::pair<const unsigned int, float>>, std::less<unsigned int>>::_Rb_tree_impl" }
%"struct.std::_Rb_tree<unsigned int, std::pair<const unsigned int, float>, std::_Select1st<std::pair<const unsigned int, float>>, std::less<unsigned int>>::_Rb_tree_impl" = type { %"struct.std::_Rb_tree_key_compare", %"struct.std::_Rb_tree_header" }
%"class.std::map.21" = type { %"class.std::_Rb_tree.22" }
%"class.std::_Rb_tree.22" = type { %"struct.std::_Rb_tree<unsigned int, std::pair<const unsigned int, std::__cxx11::basic_string<char>>, std::_Select1st<std::pair<const unsigned int, std::__cxx11::basic_string<char>>>, std::less<unsigned int>>::_Rb_tree_impl" }
%"struct.std::_Rb_tree<unsigned int, std::pair<const unsigned int, std::__cxx11::basic_string<char>>, std::_Select1st<std::pair<const unsigned int, std::__cxx11::basic_string<char>>>, std::less<unsigned int>>::_Rb_tree_impl" = type { %"struct.std::_Rb_tree_key_compare", %"struct.std::_Rb_tree_header" }
%"class.std::map.26" = type { %"class.std::_Rb_tree.27" }
%"class.std::_Rb_tree.27" = type { %"struct.std::_Rb_tree<unsigned int, std::pair<const unsigned int, aiMatrix4x4t<float>>, std::_Select1st<std::pair<const unsigned int, aiMatrix4x4t<float>>>, std::less<unsigned int>>::_Rb_tree_impl" }
%"struct.std::_Rb_tree<unsigned int, std::pair<const unsigned int, aiMatrix4x4t<float>>, std::_Select1st<std::pair<const unsigned int, aiMatrix4x4t<float>>>, std::less<unsigned int>>::_Rb_tree_impl" = type { %"struct.std::_Rb_tree_key_compare", %"struct.std::_Rb_tree_header" }
%"class.std::map.31" = type { %"class.std::_Rb_tree.32" }
%"class.std::_Rb_tree.32" = type { %"struct.std::_Rb_tree<unsigned int, std::pair<const unsigned int, void *>, std::_Select1st<std::pair<const unsigned int, void *>>, std::less<unsigned int>>::_Rb_tree_impl" }
%"struct.std::_Rb_tree<unsigned int, std::pair<const unsigned int, void *>, std::_Select1st<std::pair<const unsigned int, void *>>, std::less<unsigned int>>::_Rb_tree_impl" = type { %"struct.std::_Rb_tree_key_compare", %"struct.std::_Rb_tree_header" }
%struct.ExceptionSwallower.52 = type { i8 }

@.str.6 = private unnamed_addr constant [71 x i8] c"#aiProcess_GenSmoothNormals and #aiProcess_GenNormals are incompatible\00", align 1
@.str.7 = private unnamed_addr constant [78 x i8] c"#aiProcess_OptimizeGraph and #aiProcess_PreTransformVertices are incompatible\00", align 1

; Function Attrs: noreturn nounwind uwtable
define linkonce_odr hidden void @__clang_call_terminate(ptr noundef %0) #4 comdat {
  %2 = call ptr @__cxa_begin_catch(ptr %0) #14
  call void @_ZSt9terminatev() #15
  unreachable
}

; Function Attrs: mustprogress nounwind uwtable
define linkonce_odr noundef nonnull align 8 dereferenceable(8) ptr @_ZNSt6vectorIPN6Assimp11BaseProcessESaIS2_EEixEm(ptr noundef nonnull align 8 dereferenceable(24) %this, i64 noundef %__n) #0 comdat align 2 {
entry:
  %this.addr = alloca ptr, align 8
  %__n.addr = alloca i64, align 8
  store ptr %this, ptr %this.addr, align 8
  store i64 %__n, ptr %__n.addr, align 8
  %this1 = load ptr, ptr %this.addr, align 8
  %_M_impl = getelementptr inbounds %"struct.std::_Vector_base.6", ptr %this1, i32 0, i32 0
  %_M_start = getelementptr inbounds %"struct.std::_Vector_base<Assimp::BaseProcess *, std::allocator<Assimp::BaseProcess *>>::_Vector_impl_data", ptr %_M_impl, i32 0, i32 0
  %0 = load ptr, ptr %_M_start, align 8
  %1 = load i64, ptr %__n.addr, align 8
  %add.ptr = getelementptr inbounds ptr, ptr %0, i64 %1
  ret ptr %add.ptr
}

; Function Attrs: mustprogress nounwind uwtable
define linkonce_odr noundef i64 @_ZNKSt6vectorIPN6Assimp11BaseProcessESaIS2_EE4sizeEv(ptr noundef nonnull align 8 dereferenceable(24) %this) #0 comdat align 2 {
entry:
  %this.addr = alloca ptr, align 8
  store ptr %this, ptr %this.addr, align 8
  %this1 = load ptr, ptr %this.addr, align 8
  %_M_impl = getelementptr inbounds %"struct.std::_Vector_base.6", ptr %this1, i32 0, i32 0
  %_M_finish = getelementptr inbounds %"struct.std::_Vector_base<Assimp::BaseProcess *, std::allocator<Assimp::BaseProcess *>>::_Vector_impl_data", ptr %_M_impl, i32 0, i32 1
  %0 = load ptr, ptr %_M_finish, align 8
  %_M_impl2 = getelementptr inbounds %"struct.std::_Vector_base.6", ptr %this1, i32 0, i32 0
  %_M_start = getelementptr inbounds %"struct.std::_Vector_base<Assimp::BaseProcess *, std::allocator<Assimp::BaseProcess *>>::_Vector_impl_data", ptr %_M_impl2, i32 0, i32 0
  %1 = load ptr, ptr %_M_start, align 8
  %sub.ptr.lhs.cast = ptrtoint ptr %0 to i64
  %sub.ptr.rhs.cast = ptrtoint ptr %1 to i64
  %sub.ptr.sub = sub i64 %sub.ptr.lhs.cast, %sub.ptr.rhs.cast
  %sub.ptr.div = sdiv exact i64 %sub.ptr.sub, 8
  ret i64 %sub.ptr.div
}

; Function Attrs: mustprogress nounwind uwtable
define linkonce_odr hidden noundef zeroext i1 @_ZNK18ExceptionSwallowerIbEclEv(ptr noundef nonnull align 1 dereferenceable(1) %this) #0 comdat align 2 {
entry:
  %this.addr = alloca ptr, align 8
  store ptr %this, ptr %this.addr, align 8
  ret i1 false
}

; Function Attrs: mustprogress uwtable
define hidden noundef zeroext i1 @_Z14_ValidateFlagsj(i32 noundef %pFlags) #2 {
entry:
  %retval = alloca i1, align 1
  %pFlags.addr = alloca i32, align 4
  store i32 %pFlags, ptr %pFlags.addr, align 4
  %0 = load i32, ptr %pFlags.addr, align 4
  %and = and i32 %0, 64
  %tobool = icmp ne i32 %and, 0
  br i1 %tobool, label %land.lhs.true, label %if.end

land.lhs.true:                                    ; preds = %entry
  %1 = load i32, ptr %pFlags.addr, align 4
  %and1 = and i32 %1, 32
  %tobool2 = icmp ne i32 %and1, 0
  br i1 %tobool2, label %if.then, label %if.end

if.then:                                          ; preds = %land.lhs.true
  %call = call noundef ptr @_ZN6Assimp13DefaultLogger3getEv()
  call void @_ZN6Assimp6Logger5errorEPKc(ptr noundef nonnull align 8 dereferenceable(12) %call, ptr noundef @.str.6)
  store i1 false, ptr %retval, align 1
  br label %return

if.end:                                           ; preds = %land.lhs.true, %entry
  %2 = load i32, ptr %pFlags.addr, align 4
  %and3 = and i32 %2, 4194304
  %tobool4 = icmp ne i32 %and3, 0
  br i1 %tobool4, label %land.lhs.true5, label %if.end10

land.lhs.true5:                                   ; preds = %if.end
  %3 = load i32, ptr %pFlags.addr, align 4
  %and6 = and i32 %3, 256
  %tobool7 = icmp ne i32 %and6, 0
  br i1 %tobool7, label %if.then8, label %if.end10

if.then8:                                         ; preds = %land.lhs.true5
  %call9 = call noundef ptr @_ZN6Assimp13DefaultLogger3getEv()
  call void @_ZN6Assimp6Logger5errorEPKc(ptr noundef nonnull align 8 dereferenceable(12) %call9, ptr noundef @.str.7)
  store i1 false, ptr %retval, align 1
  br label %return

if.end10:                                         ; preds = %land.lhs.true5, %if.end
  store i1 true, ptr %retval, align 1
  br label %return

return:                                           ; preds = %if.end10, %if.then8, %if.then
  %4 = load i1, ptr %retval, align 1
  ret i1 %4
}

; Function Attrs: mustprogress uwtable
define noundef zeroext i1 @_ZNK6Assimp8Importer13ValidateFlagsEj(ptr noundef nonnull align 8 dereferenceable(8) %this, i32 noundef %pFlags) #2 align 2 personality ptr @__gxx_personality_v0 {
entry:
  %retval = alloca i1, align 1
  %this.addr = alloca ptr, align 8
  %pFlags.addr = alloca i32, align 4
  %exn.slot = alloca ptr, align 8
  %ehselector.slot = alloca i32, align 4
  %mask = alloca i32, align 4
  %have = alloca i8, align 1
  %a = alloca i32, align 4
  %ref.tmp = alloca %struct.ExceptionSwallower.52, align 1
  store ptr %this, ptr %this.addr, align 8
  store i32 %pFlags, ptr %pFlags.addr, align 4
  %this1 = load ptr, ptr %this.addr, align 8
  %0 = load i32, ptr %pFlags.addr, align 4
  %call = invoke noundef zeroext i1 @_Z14_ValidateFlagsj(i32 noundef %0)
          to label %invoke.cont unwind label %lpad

invoke.cont:                                      ; preds = %entry
  br i1 %call, label %if.end, label %if.then

if.then:                                          ; preds = %invoke.cont
  store i1 false, ptr %retval, align 1
  br label %return

lpad:                                             ; preds = %for.body7, %entry
  %1 = landingpad { ptr, i32 }
          catch ptr null
  %2 = extractvalue { ptr, i32 } %1, 0
  store ptr %2, ptr %exn.slot, align 8
  %3 = extractvalue { ptr, i32 } %1, 1
  store i32 %3, ptr %ehselector.slot, align 4
  br label %catch

catch:                                            ; preds = %lpad
  %exn = load ptr, ptr %exn.slot, align 8
  %4 = call ptr @__cxa_begin_catch(ptr %exn) #14
  %call24 = invoke noundef zeroext i1 @_ZNK18ExceptionSwallowerIbEclEv(ptr noundef nonnull align 1 dereferenceable(1) %ref.tmp)
          to label %invoke.cont23 unwind label %lpad22

invoke.cont23:                                    ; preds = %catch
  store i1 %call24, ptr %retval, align 1
  call void @__cxa_end_catch()
  br label %return

if.end:                                           ; preds = %invoke.cont
  %5 = load i32, ptr %pFlags.addr, align 4
  %and = and i32 %5, -1025
  store i32 %and, ptr %pFlags.addr, align 4
  store i32 1, ptr %mask, align 4
  br label %for.cond

for.cond:                                         ; preds = %for.inc20, %if.end
  %6 = load i32, ptr %mask, align 4
  %cmp = icmp ult i32 %6, -2147483648
  br i1 %cmp, label %for.body, label %for.end21

for.body:                                         ; preds = %for.cond
  %7 = load i32, ptr %pFlags.addr, align 4
  %8 = load i32, ptr %mask, align 4
  %and2 = and i32 %7, %8
  %tobool = icmp ne i32 %and2, 0
  br i1 %tobool, label %if.then3, label %if.end19

if.then3:                                         ; preds = %for.body
  store i8 0, ptr %have, align 1
  store i32 0, ptr %a, align 4
  br label %for.cond4

for.cond4:                                        ; preds = %for.inc, %if.then3
  %9 = load i32, ptr %a, align 4
  %conv = zext i32 %9 to i64
  %pimpl = getelementptr inbounds %"class.Assimp::Importer", ptr %this1, i32 0, i32 0
  %10 = load ptr, ptr %pimpl, align 8
  %mPostProcessingSteps = getelementptr inbounds %"class.Assimp::ImporterPimpl", ptr %10, i32 0, i32 5
  %call5 = call noundef i64 @_ZNKSt6vectorIPN6Assimp11BaseProcessESaIS2_EE4sizeEv(ptr noundef nonnull align 8 dereferenceable(24) %mPostProcessingSteps) #14
  %cmp6 = icmp ult i64 %conv, %call5
  br i1 %cmp6, label %for.body7, label %for.end

for.body7:                                        ; preds = %for.cond4
  %pimpl8 = getelementptr inbounds %"class.Assimp::Importer", ptr %this1, i32 0, i32 0
  %11 = load ptr, ptr %pimpl8, align 8
  %mPostProcessingSteps9 = getelementptr inbounds %"class.Assimp::ImporterPimpl", ptr %11, i32 0, i32 5
  %12 = load i32, ptr %a, align 4
  %conv10 = zext i32 %12 to i64
  %call11 = call noundef nonnull align 8 dereferenceable(8) ptr @_ZNSt6vectorIPN6Assimp11BaseProcessESaIS2_EEixEm(ptr noundef nonnull align 8 dereferenceable(24) %mPostProcessingSteps9, i64 noundef %conv10) #14
  %13 = load ptr, ptr %call11, align 8
  %14 = load i32, ptr %mask, align 4
  %vtable = load ptr, ptr %13, align 8
  %vfn = getelementptr inbounds ptr, ptr %vtable, i64 2
  %15 = load ptr, ptr %vfn, align 8
  %call13 = invoke noundef zeroext i1 %15(ptr noundef nonnull align 8 dereferenceable(24) %13, i32 noundef %14)
          to label %invoke.cont12 unwind label %lpad

invoke.cont12:                                    ; preds = %for.body7
  br i1 %call13, label %if.then14, label %if.end15

if.then14:                                        ; preds = %invoke.cont12
  store i8 1, ptr %have, align 1
  br label %for.end

if.end15:                                         ; preds = %invoke.cont12
  br label %for.inc

for.inc:                                          ; preds = %if.end15
  %16 = load i32, ptr %a, align 4
  %inc = add i32 %16, 1
  store i32 %inc, ptr %a, align 4
  br label %for.cond4, !llvm.loop !8

for.end:                                          ; preds = %if.then14, %for.cond4
  %17 = load i8, ptr %have, align 1
  %tobool16 = trunc i8 %17 to i1
  br i1 %tobool16, label %if.end18, label %if.then17

if.then17:                                        ; preds = %for.end
  store i1 false, ptr %retval, align 1
  br label %return

if.end18:                                         ; preds = %for.end
  br label %if.end19

if.end19:                                         ; preds = %if.end18, %for.body
  br label %for.inc20

for.inc20:                                        ; preds = %if.end19
  %18 = load i32, ptr %mask, align 4
  %shl = shl i32 %18, 1
  store i32 %shl, ptr %mask, align 4
  br label %for.cond, !llvm.loop !9

for.end21:                                        ; preds = %for.cond
  br label %try.cont

lpad22:                                           ; preds = %catch
  %19 = landingpad { ptr, i32 }
          cleanup
  %20 = extractvalue { ptr, i32 } %19, 0
  store ptr %20, ptr %exn.slot, align 8
  %21 = extractvalue { ptr, i32 } %19, 1
  store i32 %21, ptr %ehselector.slot, align 4
  invoke void @__cxa_end_catch()
          to label %invoke.cont25 unwind label %terminate.lpad

invoke.cont25:                                    ; preds = %lpad22
  br label %eh.resume

try.cont:                                         ; preds = %for.end21
  store i1 true, ptr %retval, align 1
  br label %return

return:                                           ; preds = %try.cont, %if.then17, %invoke.cont23, %if.then
  %22 = load i1, ptr %retval, align 1
  ret i1 %22

eh.resume:                                        ; preds = %invoke.cont25
  %exn26 = load ptr, ptr %exn.slot, align 8
  %sel = load i32, ptr %ehselector.slot, align 4
  %lpad.val = insertvalue { ptr, i32 } poison, ptr %exn26, 0
  %lpad.val27 = insertvalue { ptr, i32 } %lpad.val, i32 %sel, 1
  resume { ptr, i32 } %lpad.val27

terminate.lpad:                                   ; preds = %lpad22
  %23 = landingpad { ptr, i32 }
          catch ptr null
  %24 = extractvalue { ptr, i32 } %23, 0
  call void @__clang_call_terminate(ptr %24) #15
  unreachable
}