; Function Attrs: mustprogress uwtable
define noundef zeroext i1 @_ZNK6Assimp8Importer13ValidateFlagsEj(ptr nocapture noundef nonnull readonly align 8 dereferenceable(8) %this, i32 noundef %pFlags) local_unnamed_addr #2 align 2 personality ptr @__gxx_personality_v0 {
entry:
  %0 = and i32 %pFlags, 96
  %or.cond.not.i = icmp eq i32 %0, 96
  br i1 %or.cond.not.i, label %return.sink.split.i, label %if.end.i

if.end.i:                                         ; preds = %entry
  %1 = and i32 %pFlags, 4194560
  %or.cond4.not.i = icmp eq i32 %1, 4194560
  br i1 %or.cond4.not.i, label %return.sink.split.i, label %if.end

return.sink.split.i:                              ; preds = %if.end.i, %entry
  %.str.7.sink.i = phi ptr [ @.str.6, %entry ], [ @.str.7, %if.end.i ]
  %call9.i8 = invoke noundef ptr @_ZN6Assimp13DefaultLogger3getEv()
          to label %call9.i.noexc unwind label %lpad.loopexit.split-lp

call9.i.noexc:                                    ; preds = %return.sink.split.i
  invoke void @_ZN6Assimp6Logger5errorEPKc(ptr noundef nonnull align 8 dereferenceable(12) %call9.i8, ptr noundef nonnull %.str.7.sink.i)
          to label %return unwind label %lpad.loopexit.split-lp

lpad.loopexit:                                    ; preds = %for.body7
  %lpad.loopexit10 = landingpad { ptr, i32 }
          catch ptr null
  br label %lpad

lpad.loopexit.split-lp:                           ; preds = %return.sink.split.i, %call9.i.noexc
  %lpad.loopexit.split-lp11 = landingpad { ptr, i32 }
          catch ptr null
  br label %lpad

lpad:                                             ; preds = %lpad.loopexit.split-lp, %lpad.loopexit
  %lpad.phi = phi { ptr, i32 } [ %lpad.loopexit10, %lpad.loopexit ], [ %lpad.loopexit.split-lp11, %lpad.loopexit.split-lp ]
  %2 = extractvalue { ptr, i32 } %lpad.phi, 0
  %3 = tail call ptr @__cxa_begin_catch(ptr %2) #25
  tail call void @__cxa_end_catch()
  br label %return

if.end:                                           ; preds = %if.end.i
  %and = and i32 %pFlags, 2147482623
  br label %for.body

for.body:                                         ; preds = %if.end, %for.inc20
  %mask.022 = phi i32 [ 1, %if.end ], [ %shl, %for.inc20 ]
  %and2 = and i32 %and, %mask.022
  %tobool.not = icmp eq i32 %and2, 0
  br i1 %tobool.not, label %for.inc20, label %for.cond4.preheader

for.cond4.preheader:                              ; preds = %for.body
  %4 = load ptr, ptr %this, align 8
  %mPostProcessingSteps13 = getelementptr inbounds i8, ptr %4, i64 56
  %_M_finish.i14 = getelementptr inbounds i8, ptr %4, i64 64
  %5 = load ptr, ptr %_M_finish.i14, align 8
  %6 = load ptr, ptr %mPostProcessingSteps13, align 8
  %cmp619.not = icmp eq ptr %5, %6
  br i1 %cmp619.not, label %return, label %for.body7

for.cond4:                                        ; preds = %invoke.cont12
  %inc = add i32 %a.020, 1
  %conv = zext i32 %inc to i64
  %7 = load ptr, ptr %this, align 8
  %mPostProcessingSteps = getelementptr inbounds i8, ptr %7, i64 56
  %_M_finish.i = getelementptr inbounds i8, ptr %7, i64 64
  %8 = load ptr, ptr %_M_finish.i, align 8
  %9 = load ptr, ptr %mPostProcessingSteps, align 8
  %sub.ptr.lhs.cast.i = ptrtoint ptr %8 to i64
  %sub.ptr.rhs.cast.i = ptrtoint ptr %9 to i64
  %sub.ptr.sub.i = sub i64 %sub.ptr.lhs.cast.i, %sub.ptr.rhs.cast.i
  %sub.ptr.div.i = ashr exact i64 %sub.ptr.sub.i, 3
  %cmp6 = icmp ugt i64 %sub.ptr.div.i, %conv
  br i1 %cmp6, label %for.body7, label %return, !llvm.loop !11

for.body7:                                        ; preds = %for.cond4.preheader, %for.cond4
  %10 = phi ptr [ %9, %for.cond4 ], [ %6, %for.cond4.preheader ]
  %conv21 = phi i64 [ %conv, %for.cond4 ], [ 0, %for.cond4.preheader ]
  %a.020 = phi i32 [ %inc, %for.cond4 ], [ 0, %for.cond4.preheader ]
  %add.ptr.i = getelementptr inbounds ptr, ptr %10, i64 %conv21
  %11 = load ptr, ptr %add.ptr.i, align 8
  %vtable = load ptr, ptr %11, align 8
  %vfn = getelementptr inbounds i8, ptr %vtable, i64 16
  %12 = load ptr, ptr %vfn, align 8
  %call13 = invoke noundef zeroext i1 %12(ptr noundef nonnull align 8 dereferenceable(24) %11, i32 noundef %mask.022)
          to label %invoke.cont12 unwind label %lpad.loopexit

invoke.cont12:                                    ; preds = %for.body7
  br i1 %call13, label %for.inc20, label %for.cond4

for.inc20:                                        ; preds = %invoke.cont12, %for.body
  %shl = shl nuw i32 %mask.022, 1
  %cmp = icmp sgt i32 %shl, -1
  br i1 %cmp, label %for.body, label %return, !llvm.loop !12

return:                                           ; preds = %for.inc20, %for.cond4.preheader, %for.cond4, %call9.i.noexc, %lpad
  %retval.0 = phi i1 [ false, %lpad ], [ false, %call9.i.noexc ], [ false, %for.cond4 ], [ false, %for.cond4.preheader ], [ true, %for.inc20 ]
  ret i1 %retval.0
}